Archive member included to satisfy reference by file (symbol)

../../winio/libwinio.a(winio.o)
                              kernel.o (setVideo)
../../winio/libwinio.a(serial.o)
                              ../../winio/libwinio.a(winio.o) (serial_putc)

Allocating common symbols
Common symbol       size              file

proc                0xa8              proc.o
current             0x4               proc.o

Memory Configuration

Name             Origin             Length             Attributes
*default*        0x0000000000000000 0xffffffffffffffff

Linker script and memory map

                0x00000000c0000000                KERNEL_SPACE = 0xc0000000
                0x0000000000100000                KERNEL_LOAD = 0x100000
                0x0000000000100000                physentry = (entry - KERNEL_SPACE)
                0x00000000c0100000                . = (KERNEL_LOAD + KERNEL_SPACE)

.text           0x00000000c0100000     0x6d20 load address 0x0000000000100000
                0x00000000c0100000                _text_start = .
 *(.text)
 .text          0x00000000c0100000      0xaed init.o
                0x00000000c0100000                entry
                0x00000000c0100072                halt
                0x00000000c0100ad4                switchToUser
 .text          0x00000000c0100aed      0x3ad kernel.o
                0x00000000c0100aed                kernel
 .text          0x00000000c0100e9a      0xd41 syscalls.o
                0x00000000c0100f02                dump_imp
                0x00000000c0100f36                kmapPage_imp
                0x00000000c0101003                allocBuffer_imp
                0x00000000c010112a                printBuffer_imp
                0x00000000c01011bd                remaining_imp
                0x00000000c0101215                getTicks_imp
                0x00000000c010124f                kputc_imp
                0x00000000c01012bd                getWindowCap
                0x00000000c01012d9                putchar_imp
                0x00000000c0101316                cls_imp
                0x00000000c010134a                setAttr_imp
                0x00000000c0101387                capmove_imp
                0x00000000c01014b3                capclear_imp
                0x00000000c01014f2                getUntypedCap
                0x00000000c010150e                retype_imp
                0x00000000c010170d                allocUntyped_imp
                0x00000000c01017c6                allocCspace_imp
                0x00000000c010183b                allocPage_imp
                0x00000000c01018b2                allocPageTable_imp
                0x00000000c0101929                mapPage_imp
                0x00000000c0101a4b                mapPageTable_imp
                0x00000000c0101b7c                timerInterrupt
 .text          0x00000000c0101bdb       0xe1 proc.o
                0x00000000c0101bdb                initProcess
                0x00000000c0101c94                reschedule
 .text          0x00000000c0101cbc      0x2d6 paging.o
                0x00000000c0101cbc                allocPdir
                0x00000000c0101d18                allocPtab
                0x00000000c0101d24                mapPage
                0x00000000c0101e10                newUserPdir
                0x00000000c0101e8d                showPdir
 .text          0x00000000c0101f92      0x843 alloc.o
                0x00000000c01020b0                showUntyped
                0x00000000c0102113                donateUntyped
                0x00000000c01021a3                initMemory
                0x00000000c010267c                allocPage
                0x00000000c0102727                copyPage
 .text          0x00000000c01027d5      0x244 caps.o
                0x00000000c01027d5                alloc
                0x00000000c010286c                showCap
                0x00000000c010299e                showCspace
 .text          0x00000000c0102a19      0x52a ../../winio/libwinio.a(winio.o)
                0x00000000c0102a19                setVideo
                0x00000000c0102a23                wsetWindow
                0x00000000c0102a73                wsetAttr
                0x00000000c0102a7f                wcls
                0x00000000c0102ad0                wputchar
                0x00000000c0102bd0                wputs
                0x00000000c0102c04                wprintf
 .text          0x00000000c0102f43       0x2b ../../winio/libwinio.a(serial.o)
                0x00000000c0102f43                serial_putc
 *(.handlers)
                0x00000000c0102f6e                _text_end = .
 *(.rodata*)
 *fill*         0x00000000c0102f6e        0x2 
 .rodata.str1.4
                0x00000000c0102f70       0xbf kernel.o
 .rodata.str1.1
                0x00000000c010302f      0x106 kernel.o
 *fill*         0x00000000c0103135        0x3 
 .rodata.str1.4
                0x00000000c0103138       0xeb syscalls.o
 .rodata.str1.1
                0x00000000c0103223       0xd4 syscalls.o
 .rodata.str1.1
                0x00000000c01032f7       0x4c proc.o
 *fill*         0x00000000c0103343        0x1 
 .rodata.str1.4
                0x00000000c0103344       0xd3 paging.o
                                         0xf7 (size before relaxing)
 .rodata.str1.1
                0x00000000c0103417       0x49 paging.o
                                         0x5a (size before relaxing)
 .rodata.str1.1
                0x00000000c0103460      0x154 alloc.o
                                        0x167 (size before relaxing)
 .rodata.str1.4
                0x00000000c01035b4       0xd2 alloc.o
                                         0xfa (size before relaxing)
 *fill*         0x00000000c0103686        0x2 
 .rodata.str1.4
                0x00000000c0103688       0x84 caps.o
 .rodata.str1.1
                0x00000000c010370c       0xc1 caps.o
 *fill*         0x00000000c01037cd        0x3 
 .rodata        0x00000000c01037d0       0x20 caps.o
 .rodata.str1.1
                0x00000000c01037f0        0x7 ../../winio/libwinio.a(winio.o)
 *fill*         0x00000000c01037f7        0x1 
 .rodata        0x00000000c01037f8       0x58 ../../winio/libwinio.a(winio.o)
 *(.data)
 *fill*         0x00000000c0103850      0x7b0 
 .data          0x00000000c0104000     0x28d0 init.o
                0x00000000c0104000                initdir
 .data          0x00000000c01068d0        0x0 kernel.o
 .data          0x00000000c01068d0        0x0 syscalls.o
 .data          0x00000000c01068d0        0x0 proc.o
 .data          0x00000000c01068d0        0x0 paging.o
 .data          0x00000000c01068d0        0x0 alloc.o
 .data          0x00000000c01068d0        0x0 caps.o
 .data          0x00000000c01068d0       0x20 ../../winio/libwinio.a(winio.o)
                0x00000000c01068d0                console
 .data          0x00000000c01068f0        0x0 ../../winio/libwinio.a(serial.o)
                0x00000000c01068f0                _start_bss = .
 *(COMMON)
 *fill*         0x00000000c01068f0       0x10 
 COMMON         0x00000000c0106900       0xac proc.o
                0x00000000c0106900                proc
                0x00000000c01069a8                current
 *(.bss)
 .bss           0x00000000c01069ac        0x0 init.o
 .bss           0x00000000c01069ac       0x3c kernel.o
                0x00000000c01069ac                kernelInitialized
 .bss           0x00000000c01069e8        0x8 syscalls.o
                0x00000000c01069e8                ticks
 .bss           0x00000000c01069f0        0x0 proc.o
 .bss           0x00000000c01069f0        0x0 paging.o
 *fill*         0x00000000c01069f0       0x10 
 .bss           0x00000000c0106a00      0x320 alloc.o
 .bss           0x00000000c0106d20        0x0 caps.o
 .bss           0x00000000c0106d20        0x0 ../../winio/libwinio.a(winio.o)
 .bss           0x00000000c0106d20        0x0 ../../winio/libwinio.a(serial.o)
                0x00000000c0106d20                _end_bss = .
LOAD init.o
LOAD kernel.o
LOAD syscalls.o
LOAD proc.o
LOAD paging.o
LOAD alloc.o
LOAD caps.o
LOAD ../../winio/libwinio.a
OUTPUT(kernel elf32-i386)

.rel.dyn        0x00000000c0106d20        0x0 load address 0x0000000000106d20
 .rel.text      0x00000000c0106d20        0x0 init.o

.eh_frame       0x00000000c0106d20      0xfc4 load address 0x0000000000106d20
 .eh_frame      0x00000000c0106d20      0x1b0 kernel.o
 .eh_frame      0x00000000c0106ed0      0x680 syscalls.o
                                        0x698 (size before relaxing)
 .eh_frame      0x00000000c0107550       0x70 proc.o
                                         0x88 (size before relaxing)
 .eh_frame      0x00000000c01075c0      0x1a0 paging.o
                                        0x1b8 (size before relaxing)
 .eh_frame      0x00000000c0107760      0x2bc alloc.o
                                        0x2d4 (size before relaxing)
 .eh_frame      0x00000000c0107a1c      0x164 caps.o
                                        0x17c (size before relaxing)
 .eh_frame      0x00000000c0107b80      0x164 ../../winio/libwinio.a(winio.o)
                                        0x17c (size before relaxing)

.debug_line     0x0000000000000000      0xb9d
 .debug_line    0x0000000000000000      0x115 init.o
 .debug_line    0x0000000000000115      0x187 kernel.o
 .debug_line    0x000000000000029c      0x44c syscalls.o
 .debug_line    0x00000000000006e8       0xb5 proc.o
 .debug_line    0x000000000000079d       0xdc paging.o
 .debug_line    0x0000000000000879      0x265 alloc.o
 .debug_line    0x0000000000000ade       0xbf caps.o

.debug_info     0x0000000000000000     0x3ee0
 .debug_info    0x0000000000000000       0x47 init.o
 .debug_info    0x0000000000000047      0xb1b kernel.o
 .debug_info    0x0000000000000b62     0x19af syscalls.o
 .debug_info    0x0000000000002511      0x4eb proc.o
 .debug_info    0x00000000000029fc      0x41a paging.o
 .debug_info    0x0000000000002e16      0xabe alloc.o
 .debug_info    0x00000000000038d4      0x60c caps.o

.debug_abbrev   0x0000000000000000      0xe02
 .debug_abbrev  0x0000000000000000       0x14 init.o
 .debug_abbrev  0x0000000000000014      0x223 kernel.o
 .debug_abbrev  0x0000000000000237      0x370 syscalls.o
 .debug_abbrev  0x00000000000005a7      0x1b7 proc.o
 .debug_abbrev  0x000000000000075e      0x1db paging.o
 .debug_abbrev  0x0000000000000939      0x32e alloc.o
 .debug_abbrev  0x0000000000000c67      0x19b caps.o

.debug_aranges  0x0000000000000000       0xe0
 .debug_aranges
                0x0000000000000000       0x20 init.o
 .debug_aranges
                0x0000000000000020       0x20 kernel.o
 .debug_aranges
                0x0000000000000040       0x20 syscalls.o
 .debug_aranges
                0x0000000000000060       0x20 proc.o
 .debug_aranges
                0x0000000000000080       0x20 paging.o
 .debug_aranges
                0x00000000000000a0       0x20 alloc.o
 .debug_aranges
                0x00000000000000c0       0x20 caps.o

.debug_loc      0x0000000000000000     0x218f
 .debug_loc     0x0000000000000000      0x381 kernel.o
 .debug_loc     0x0000000000000381      0xf33 syscalls.o
 .debug_loc     0x00000000000012b4       0x71 proc.o
 .debug_loc     0x0000000000001325      0x33a paging.o
 .debug_loc     0x000000000000165f      0x8e9 alloc.o
 .debug_loc     0x0000000000001f48      0x247 caps.o

.debug_ranges   0x0000000000000000      0x230
 .debug_ranges  0x0000000000000000       0x60 kernel.o
 .debug_ranges  0x0000000000000060       0xa8 syscalls.o
 .debug_ranges  0x0000000000000108      0x110 alloc.o
 .debug_ranges  0x0000000000000218       0x18 caps.o

.debug_str      0x0000000000000000      0x6c4
 .debug_str     0x0000000000000000      0x2db kernel.o
                                        0x34f (size before relaxing)
 .debug_str     0x00000000000002db      0x2b2 syscalls.o
                                        0x54b (size before relaxing)
 .debug_str     0x000000000000058d       0x41 proc.o
                                        0x24f (size before relaxing)
 .debug_str     0x00000000000005ce       0x2b paging.o
                                        0x17b (size before relaxing)
 .debug_str     0x00000000000005f9       0xb2 alloc.o
                                        0x2c8 (size before relaxing)
 .debug_str     0x00000000000006ab       0x19 caps.o
                                        0x210 (size before relaxing)

.comment        0x0000000000000000       0x2d
 .comment       0x0000000000000000       0x2d kernel.o
                                         0x2e (size before relaxing)
 .comment       0x000000000000002d       0x2e syscalls.o
 .comment       0x000000000000002d       0x2e proc.o
 .comment       0x000000000000002d       0x2e paging.o
 .comment       0x000000000000002d       0x2e alloc.o
 .comment       0x000000000000002d       0x2e caps.o
 .comment       0x000000000000002d       0x2e ../../winio/libwinio.a(winio.o)

.note.GNU-stack
                0x0000000000000000        0x0
 .note.GNU-stack
                0x0000000000000000        0x0 kernel.o
 .note.GNU-stack
                0x0000000000000000        0x0 syscalls.o
 .note.GNU-stack
                0x0000000000000000        0x0 proc.o
 .note.GNU-stack
                0x0000000000000000        0x0 paging.o
 .note.GNU-stack
                0x0000000000000000        0x0 alloc.o
 .note.GNU-stack
                0x0000000000000000        0x0 caps.o
 .note.GNU-stack
                0x0000000000000000        0x0 ../../winio/libwinio.a(winio.o)
